; ModuleID = '46/658.c'
source_filename = "46/658.c"
target datalayout = "e-m:e-p270:32:32-p271:32:32-p272:64:64-i64:64-f80:128-n8:16:32:64-S128"
target triple = "x86_64-pc-linux-gnu"

@.str = private unnamed_addr constant [6 x i8] c"%d %d\00", align 1
@.str.1 = private unnamed_addr constant [3 x i8] c"%d\00", align 1
@.str.2 = private unnamed_addr constant [4 x i8] c"%d\0A\00", align 1

; Function Attrs: noinline nounwind uwtable
define dso_local void @main() #0 {
  %1 = alloca i32, align 4
  %2 = alloca i32, align 4
  %3 = alloca i32, align 4
  %4 = alloca i32, align 4
  %5 = alloca i32, align 4
  %6 = alloca [100 x [100 x i32]], align 16
  store i32 1, i32* %5, align 4
  %7 = call i32 (i8*, ...) @__isoc99_scanf(i8* getelementptr inbounds ([6 x i8], [6 x i8]* @.str, i64 0, i64 0), i32* %1, i32* %2)
  store i32 0, i32* %3, align 4
  br label %8

8:                                                ; preds = %29, %0
  %9 = load i32, i32* %3, align 4
  %10 = load i32, i32* %1, align 4
  %11 = icmp slt i32 %9, %10
  br i1 %11, label %12, label %32

12:                                               ; preds = %8
  store i32 0, i32* %4, align 4
  br label %13

13:                                               ; preds = %25, %12
  %14 = load i32, i32* %4, align 4
  %15 = load i32, i32* %2, align 4
  %16 = icmp slt i32 %14, %15
  br i1 %16, label %17, label %28

17:                                               ; preds = %13
  %18 = load i32, i32* %3, align 4
  %19 = sext i32 %18 to i64
  %20 = getelementptr inbounds [100 x [100 x i32]], [100 x [100 x i32]]* %6, i64 0, i64 %19
  %21 = load i32, i32* %4, align 4
  %22 = sext i32 %21 to i64
  %23 = getelementptr inbounds [100 x i32], [100 x i32]* %20, i64 0, i64 %22
  %24 = call i32 (i8*, ...) @__isoc99_scanf(i8* getelementptr inbounds ([3 x i8], [3 x i8]* @.str.1, i64 0, i64 0), i32* %23)
  br label %25

25:                                               ; preds = %17
  %26 = load i32, i32* %4, align 4
  %27 = add nsw i32 %26, 1
  store i32 %27, i32* %4, align 4
  br label %13

28:                                               ; preds = %13
  br label %29

29:                                               ; preds = %28
  %30 = load i32, i32* %3, align 4
  %31 = add nsw i32 %30, 1
  store i32 %31, i32* %3, align 4
  br label %8

32:                                               ; preds = %8
  %33 = load i32, i32* %1, align 4
  %34 = load i32, i32* %2, align 4
  %35 = icmp sgt i32 %33, %34
  br i1 %35, label %36, label %38

36:                                               ; preds = %32
  %37 = load i32, i32* %2, align 4
  store i32 %37, i32* %5, align 4
  br label %40

38:                                               ; preds = %32
  %39 = load i32, i32* %1, align 4
  store i32 %39, i32* %5, align 4
  br label %40

40:                                               ; preds = %38, %36
  store i32 0, i32* %3, align 4
  br label %41

41:                                               ; preds = %202, %40
  %42 = load i32, i32* %3, align 4
  %43 = load i32, i32* %5, align 4
  %44 = icmp slt i32 %42, %43
  br i1 %44, label %45, label %205

45:                                               ; preds = %41
  store i32 0, i32* %4, align 4
  br label %46

46:                                               ; preds = %76, %45
  %47 = load i32, i32* %4, align 4
  %48 = load i32, i32* %2, align 4
  %49 = icmp slt i32 %47, %48
  br i1 %49, label %50, label %79

50:                                               ; preds = %46
  %51 = load i32, i32* %3, align 4
  %52 = sext i32 %51 to i64
  %53 = getelementptr inbounds [100 x [100 x i32]], [100 x [100 x i32]]* %6, i64 0, i64 %52
  %54 = load i32, i32* %4, align 4
  %55 = sext i32 %54 to i64
  %56 = getelementptr inbounds [100 x i32], [100 x i32]* %53, i64 0, i64 %55
  %57 = load i32, i32* %56, align 4
  %58 = icmp sgt i32 %57, -1000
  br i1 %58, label %59, label %74

59:                                               ; preds = %50
  %60 = load i32, i32* %3, align 4
  %61 = sext i32 %60 to i64
  %62 = getelementptr inbounds [100 x [100 x i32]], [100 x [100 x i32]]* %6, i64 0, i64 %61
  %63 = load i32, i32* %4, align 4
  %64 = sext i32 %63 to i64
  %65 = getelementptr inbounds [100 x i32], [100 x i32]* %62, i64 0, i64 %64
  %66 = load i32, i32* %65, align 4
  %67 = call i32 (i8*, ...) @printf(i8* getelementptr inbounds ([4 x i8], [4 x i8]* @.str.2, i64 0, i64 0), i32 %66)
  %68 = load i32, i32* %3, align 4
  %69 = sext i32 %68 to i64
  %70 = getelementptr inbounds [100 x [100 x i32]], [100 x [100 x i32]]* %6, i64 0, i64 %69
  %71 = load i32, i32* %4, align 4
  %72 = sext i32 %71 to i64
  %73 = getelementptr inbounds [100 x i32], [100 x i32]* %70, i64 0, i64 %72
  store i32 -10000, i32* %73, align 4
  br label %75

74:                                               ; preds = %50
  br label %76

75:                                               ; preds = %59
  br label %76

76:                                               ; preds = %75, %74
  %77 = load i32, i32* %4, align 4
  %78 = add nsw i32 %77, 1
  store i32 %78, i32* %4, align 4
  br label %46

79:                                               ; preds = %46
  store i32 0, i32* %4, align 4
  br label %80

80:                                               ; preds = %119, %79
  %81 = load i32, i32* %4, align 4
  %82 = load i32, i32* %1, align 4
  %83 = icmp slt i32 %81, %82
  br i1 %83, label %84, label %122

84:                                               ; preds = %80
  %85 = load i32, i32* %4, align 4
  %86 = sext i32 %85 to i64
  %87 = getelementptr inbounds [100 x [100 x i32]], [100 x [100 x i32]]* %6, i64 0, i64 %86
  %88 = load i32, i32* %2, align 4
  %89 = sub nsw i32 %88, 1
  %90 = load i32, i32* %3, align 4
  %91 = sub nsw i32 %89, %90
  %92 = sext i32 %91 to i64
  %93 = getelementptr inbounds [100 x i32], [100 x i32]* %87, i64 0, i64 %92
  %94 = load i32, i32* %93, align 4
  %95 = icmp sgt i32 %94, -1000
  br i1 %95, label %96, label %117

96:                                               ; preds = %84
  %97 = load i32, i32* %4, align 4
  %98 = sext i32 %97 to i64
  %99 = getelementptr inbounds [100 x [100 x i32]], [100 x [100 x i32]]* %6, i64 0, i64 %98
  %100 = load i32, i32* %2, align 4
  %101 = sub nsw i32 %100, 1
  %102 = load i32, i32* %3, align 4
  %103 = sub nsw i32 %101, %102
  %104 = sext i32 %103 to i64
  %105 = getelementptr inbounds [100 x i32], [100 x i32]* %99, i64 0, i64 %104
  %106 = load i32, i32* %105, align 4
  %107 = call i32 (i8*, ...) @printf(i8* getelementptr inbounds ([4 x i8], [4 x i8]* @.str.2, i64 0, i64 0), i32 %106)
  %108 = load i32, i32* %4, align 4
  %109 = sext i32 %108 to i64
  %110 = getelementptr inbounds [100 x [100 x i32]], [100 x [100 x i32]]* %6, i64 0, i64 %109
  %111 = load i32, i32* %2, align 4
  %112 = sub nsw i32 %111, 1
  %113 = load i32, i32* %3, align 4
  %114 = sub nsw i32 %112, %113
  %115 = sext i32 %114 to i64
  %116 = getelementptr inbounds [100 x i32], [100 x i32]* %110, i64 0, i64 %115
  store i32 -10000, i32* %116, align 4
  br label %118

117:                                              ; preds = %84
  br label %119

118:                                              ; preds = %96
  br label %119

119:                                              ; preds = %118, %117
  %120 = load i32, i32* %4, align 4
  %121 = add nsw i32 %120, 1
  store i32 %121, i32* %4, align 4
  br label %80

122:                                              ; preds = %80
  %123 = load i32, i32* %2, align 4
  %124 = sub nsw i32 %123, 1
  store i32 %124, i32* %4, align 4
  br label %125

125:                                              ; preds = %163, %122
  %126 = load i32, i32* %4, align 4
  %127 = icmp sge i32 %126, 0
  br i1 %127, label %128, label %166

128:                                              ; preds = %125
  %129 = load i32, i32* %1, align 4
  %130 = sub nsw i32 %129, 1
  %131 = load i32, i32* %3, align 4
  %132 = sub nsw i32 %130, %131
  %133 = sext i32 %132 to i64
  %134 = getelementptr inbounds [100 x [100 x i32]], [100 x [100 x i32]]* %6, i64 0, i64 %133
  %135 = load i32, i32* %4, align 4
  %136 = sext i32 %135 to i64
  %137 = getelementptr inbounds [100 x i32], [100 x i32]* %134, i64 0, i64 %136
  %138 = load i32, i32* %137, align 4
  %139 = icmp sgt i32 %138, -1000
  br i1 %139, label %140, label %161

140:                                              ; preds = %128
  %141 = load i32, i32* %1, align 4
  %142 = sub nsw i32 %141, 1
  %143 = load i32, i32* %3, align 4
  %144 = sub nsw i32 %142, %143
  %145 = sext i32 %144 to i64
  %146 = getelementptr inbounds [100 x [100 x i32]], [100 x [100 x i32]]* %6, i64 0, i64 %145
  %147 = load i32, i32* %4, align 4
  %148 = sext i32 %147 to i64
  %149 = getelementptr inbounds [100 x i32], [100 x i32]* %146, i64 0, i64 %148
  %150 = load i32, i32* %149, align 4
  %151 = call i32 (i8*, ...) @printf(i8* getelementptr inbounds ([4 x i8], [4 x i8]* @.str.2, i64 0, i64 0), i32 %150)
  %152 = load i32, i32* %1, align 4
  %153 = sub nsw i32 %152, 1
  %154 = load i32, i32* %3, align 4
  %155 = sub nsw i32 %153, %154
  %156 = sext i32 %155 to i64
  %157 = getelementptr inbounds [100 x [100 x i32]], [100 x [100 x i32]]* %6, i64 0, i64 %156
  %158 = load i32, i32* %4, align 4
  %159 = sext i32 %158 to i64
  %160 = getelementptr inbounds [100 x i32], [100 x i32]* %157, i64 0, i64 %159
  store i32 -10000, i32* %160, align 4
  br label %162

161:                                              ; preds = %128
  br label %163

162:                                              ; preds = %140
  br label %163

163:                                              ; preds = %162, %161
  %164 = load i32, i32* %4, align 4
  %165 = add nsw i32 %164, -1
  store i32 %165, i32* %4, align 4
  br label %125

166:                                              ; preds = %125
  %167 = load i32, i32* %1, align 4
  %168 = sub nsw i32 %167, 1
  store i32 %168, i32* %4, align 4
  br label %169

169:                                              ; preds = %198, %166
  %170 = load i32, i32* %4, align 4
  %171 = icmp sge i32 %170, 0
  br i1 %171, label %172, label %201

172:                                              ; preds = %169
  %173 = load i32, i32* %4, align 4
  %174 = sext i32 %173 to i64
  %175 = getelementptr inbounds [100 x [100 x i32]], [100 x [100 x i32]]* %6, i64 0, i64 %174
  %176 = load i32, i32* %3, align 4
  %177 = sext i32 %176 to i64
  %178 = getelementptr inbounds [100 x i32], [100 x i32]* %175, i64 0, i64 %177
  %179 = load i32, i32* %178, align 4
  %180 = icmp sgt i32 %179, -1000
  br i1 %180, label %181, label %196

181:                                              ; preds = %172
  %182 = load i32, i32* %4, align 4
  %183 = sext i32 %182 to i64
  %184 = getelementptr inbounds [100 x [100 x i32]], [100 x [100 x i32]]* %6, i64 0, i64 %183
  %185 = load i32, i32* %3, align 4
  %186 = sext i32 %185 to i64
  %187 = getelementptr inbounds [100 x i32], [100 x i32]* %184, i64 0, i64 %186
  %188 = load i32, i32* %187, align 4
  %189 = call i32 (i8*, ...) @printf(i8* getelementptr inbounds ([4 x i8], [4 x i8]* @.str.2, i64 0, i64 0), i32 %188)
  %190 = load i32, i32* %4, align 4
  %191 = sext i32 %190 to i64
  %192 = getelementptr inbounds [100 x [100 x i32]], [100 x [100 x i32]]* %6, i64 0, i64 %191
  %193 = load i32, i32* %3, align 4
  %194 = sext i32 %193 to i64
  %195 = getelementptr inbounds [100 x i32], [100 x i32]* %192, i64 0, i64 %194
  store i32 -10000, i32* %195, align 4
  br label %197

196:                                              ; preds = %172
  br label %198

197:                                              ; preds = %181
  br label %198

198:                                              ; preds = %197, %196
  %199 = load i32, i32* %4, align 4
  %200 = add nsw i32 %199, -1
  store i32 %200, i32* %4, align 4
  br label %169

201:                                              ; preds = %169
  br label %202

202:                                              ; preds = %201
  %203 = load i32, i32* %3, align 4
  %204 = add nsw i32 %203, 1
  store i32 %204, i32* %3, align 4
  br label %41

205:                                              ; preds = %41
  ret void
}

declare dso_local i32 @__isoc99_scanf(i8*, ...) #1

declare dso_local i32 @printf(i8*, ...) #1


!llvm.module.flags = !{!0}
!llvm.ident = !{!1}

!0 = !{i32 1, !"wchar_size", i32 4}
!1 = !{!"clang version 10.0.0-4ubuntu1 "}
